target datalayout = "e-m:e-p270:32:32-p271:32:32-p272:64:64-i64:64-i128:128-f80:128-n8:16:32:64-S128"
target triple = "x86_64-pc-linux-gnu"

%struct.hb_ot_shape_normalize_context_t = type { ptr, ptr, ptr, ptr, i32, ptr, ptr }
%struct.hb_object_header_t = type { %struct.hb_reference_count_t, %struct.hb_atomic_int_t, %struct.hb_atomic_ptr_t }
%struct.hb_reference_count_t = type { %struct.hb_atomic_int_t }
%struct.hb_atomic_int_t = type { i32 }
%struct.hb_atomic_ptr_t = type { ptr }
%struct.hb_unicode_funcs_t = type { %struct.hb_object_header_t, ptr, %struct.anon, %struct.anon.7, %struct.anon.8 }
%struct.anon = type { ptr, ptr, ptr, ptr, ptr, ptr, ptr, ptr }
%struct.anon.7 = type { ptr, ptr, ptr, ptr, ptr, ptr, ptr, ptr }
%struct.anon.8 = type { ptr, ptr, ptr, ptr, ptr, ptr, ptr, ptr }

; Function Attrs: mustprogress uwtable
define linkonce_odr hidden noundef i32 @_ZN18hb_unicode_funcs_t9decomposeEjPjS0_(ptr noundef nonnull align 8 dereferenceable(216) %0, i32 noundef %1, ptr noundef %2, ptr noundef %3) #0 comdat align 2 {
  %5 = alloca ptr, align 8
  %6 = alloca i32, align 4
  %7 = alloca ptr, align 8
  %8 = alloca ptr, align 8
  store ptr %0, ptr %5, align 8
  store i32 %1, ptr %6, align 4
  store ptr %2, ptr %7, align 8
  store ptr %3, ptr %8, align 8
  %9 = load ptr, ptr %5, align 8
  %10 = load i32, ptr %6, align 4
  %11 = load ptr, ptr %7, align 8
  store i32 %10, ptr %11, align 4
  %12 = load ptr, ptr %8, align 8
  store i32 0, ptr %12, align 4
  %13 = getelementptr inbounds %struct.hb_unicode_funcs_t, ptr %9, i32 0, i32 2
  %14 = getelementptr inbounds %struct.anon, ptr %13, i32 0, i32 6
  %15 = load ptr, ptr %14, align 8
  %16 = load i32, ptr %6, align 4
  %17 = load ptr, ptr %7, align 8
  %18 = load ptr, ptr %8, align 8
  %19 = getelementptr inbounds %struct.hb_unicode_funcs_t, ptr %9, i32 0, i32 3
  %20 = getelementptr inbounds %struct.anon.7, ptr %19, i32 0, i32 6
  %21 = load ptr, ptr %20, align 8
  %22 = call noundef i32 %15(ptr noundef %9, i32 noundef %16, ptr noundef %17, ptr noundef %18, ptr noundef %21)
  ret i32 %22
}

; Function Attrs: mustprogress uwtable
define internal noundef zeroext i1 @_ZL17decompose_unicodePK31hb_ot_shape_normalize_context_tjPjS2_(ptr noundef %0, i32 noundef %1, ptr noundef %2, ptr noundef %3) #0 {
  %5 = alloca ptr, align 8
  %6 = alloca i32, align 4
  %7 = alloca ptr, align 8
  %8 = alloca ptr, align 8
  store ptr %0, ptr %5, align 8
  store i32 %1, ptr %6, align 4
  store ptr %2, ptr %7, align 8
  store ptr %3, ptr %8, align 8
  %9 = load ptr, ptr %5, align 8
  %10 = getelementptr inbounds %struct.hb_ot_shape_normalize_context_t, ptr %9, i32 0, i32 3
  %11 = load ptr, ptr %10, align 8
  %12 = load i32, ptr %6, align 4
  %13 = load ptr, ptr %7, align 8
  %14 = load ptr, ptr %8, align 8
  %15 = call noundef i32 @_ZN18hb_unicode_funcs_t9decomposeEjPjS0_(ptr noundef nonnull align 8 dereferenceable(216) %11, i32 noundef %12, ptr noundef %13, ptr noundef %14)
  %16 = icmp ne i32 %15, 0
  ret i1 %16
}