; Function Attrs: mustprogress uwtable
define internal noundef zeroext i1 @_ZL17decompose_unicodePK31hb_ot_shape_normalize_context_tjPjS2_(ptr nocapture noundef readonly %0, i32 noundef %1, ptr noundef %2, ptr noundef %3) #0 {
  %5 = getelementptr inbounds i8, ptr %0, i64 24
  %6 = load ptr, ptr %5, align 8
  store i32 %1, ptr %2, align 4
  store i32 0, ptr %3, align 4
  %7 = getelementptr inbounds i8, ptr %6, i64 72
  %8 = load ptr, ptr %7, align 8
  %9 = getelementptr inbounds i8, ptr %6, i64 136
  %10 = load ptr, ptr %9, align 8
  %11 = tail call noundef i32 %8(ptr noundef nonnull %6, i32 noundef %1, ptr noundef nonnull %2, ptr noundef nonnull %3, ptr noundef %10)
  %12 = icmp ne i32 %11, 0
  ret i1 %12
}